; Function Attrs: nounwind uwtable
define dso_local i32 @cgroup_p_step_suspend() local_unnamed_addr #0 {
  %1 = load i8, ptr @g_step_cgpath, align 16
  %2 = icmp eq i8 %1, 0
  br i1 %2, label %5, label %3

3:                                                ; preds = %0
  %4 = tail call i32 @common_cgroup_set_param(ptr noundef nonnull getelementptr inbounds nuw (i8, ptr @int_cg, i64 160), ptr noundef nonnull @.str.21, ptr noundef nonnull @.str.22) #11
  br label %5

5:                                                ; preds = %0, %3
  %.0 = phi i32 [ %4, %3 ], [ -1, %0 ]
  ret i32 %.0
}